; Function Attrs: null_pointer_is_valid sspstrong uwtable
define internal fastcc noundef i32 @dissect_tds_done_token(ptr noundef nonnull %0, i32 noundef %1, ptr noundef %2, ptr noundef readonly captures(none) %3) unnamed_addr #0 {
  %5 = load i32, ptr @hf_tds_done_status, align 4
  %6 = load i32, ptr @ett_tds_done_status, align 4
  %7 = getelementptr i8, ptr %3, i64 20
  %.val23 = load i32, ptr %7, align 4
  %8 = icmp eq i32 %.val23, 2
  %9 = select i1 %8, i32 0, i32 -2147483648
  %10 = tail call ptr @proto_tree_add_bitmask(ptr noundef %2, ptr noundef nonnull %0, i32 noundef %1, i32 noundef %5, i32 noundef %6, ptr noundef nonnull @done_status_flags, i32 noundef %9)
  %11 = add i32 %1, 2
  %12 = load i32, ptr @hf_tds_done_curcmd, align 4
  %.val = load i32, ptr %7, align 4
  %13 = icmp eq i32 %.val, 2
  %14 = select i1 %13, i32 0, i32 -2147483648
  %15 = tail call ptr @proto_tree_add_item(ptr noundef %2, i32 noundef %12, ptr noundef nonnull %0, i32 noundef %11, i32 noundef 2, i32 noundef %14)
  %16 = add i32 %1, 4
  %17 = load i32, ptr @tds_protocol_type, align 4
  %18 = icmp eq i32 %17, 65535
  br i1 %18, label %19, label %23

19:                                               ; preds = %4
  %20 = getelementptr inbounds nuw i8, ptr %3, i64 8
  %21 = load i32, ptr %20, align 8
  %22 = icmp slt i32 %21, 28929
  br i1 %22, label %25, label %31

23:                                               ; preds = %4
  %24 = icmp slt i32 %17, 28929
  br i1 %24, label %25, label %31

25:                                               ; preds = %23, %19
  %26 = load i32, ptr @hf_tds_done_donerowcount_32, align 4
  %27 = getelementptr i8, ptr %3, i64 24
  %.val24 = load i32, ptr %27, align 8
  %28 = icmp eq i32 %.val24, 0
  %29 = select i1 %28, i32 0, i32 -2147483648
  %30 = tail call ptr @proto_tree_add_item(ptr noundef %2, i32 noundef %26, ptr noundef nonnull %0, i32 noundef %16, i32 noundef 4, i32 noundef %29)
  br label %34

31:                                               ; preds = %23, %19
  %32 = load i32, ptr @hf_tds_done_donerowcount_64, align 4
  %33 = tail call ptr @proto_tree_add_item(ptr noundef %2, i32 noundef %32, ptr noundef nonnull %0, i32 noundef %16, i32 noundef 8, i32 noundef -2147483648)
  br label %34

34:                                               ; preds = %31, %25
  %.sink = phi i32 [ 12, %31 ], [ 8, %25 ]
  ret i32 %.sink
}